target datalayout = "e-m:e-p270:32:32-p271:32:32-p272:64:64-i64:64-i128:128-f80:128-n8:16:32:64-S128"
target triple = "x86_64-unknown-linux-gnu"

%struct.atomic_p_t = type { ptr }
%struct.malloc_mutex_s = type { %union.anon }
%union.anon = type { %struct.anon }
%struct.anon = type { %struct.mutex_prof_data_t, %union.pthread_mutex_t, %struct.atomic_b_t }
%struct.mutex_prof_data_t = type { %struct.nstime_t, %struct.nstime_t, i64, i64, i32, %struct.atomic_u32_t, i64, ptr, i64 }
%struct.nstime_t = type { i64 }
%struct.atomic_u32_t = type { i32 }
%union.pthread_mutex_t = type { %struct.__pthread_mutex_s }
%struct.__pthread_mutex_s = type { i32, i32, i32, i32, i32, i16, i16, %struct.__pthread_internal_list }
%struct.__pthread_internal_list = type { ptr, ptr }
%struct.atomic_b_t = type { i8 }
%struct.emap_s = type { %struct.rtree_s }
%struct.rtree_s = type { ptr, %struct.malloc_mutex_s, [262144 x %struct.rtree_node_elm_s] }
%struct.rtree_node_elm_s = type { %struct.atomic_p_t }
%struct.tsd_s = type { i8, i8, i64, i64, i64, i64, i64, i64, i64, i64, i64, i64, i64, i64, ptr, i64, i64, i64, ptr, ptr, %struct.ticker_geom_s, i8, %struct.tsd_binshards_s, %struct.tsd_link_t, i8, %struct.peak_s, %struct.activity_callback_thunk_s, %struct.tcache_slow_s, %struct.rtree_ctx_s, %struct.atomic_u8_t, i64, i64, i64, i64, %struct.tcache_s, %struct.witness_tsd_s }
%struct.ticker_geom_s = type { i32, i32 }
%struct.tsd_binshards_s = type { [39 x i8] }
%struct.tsd_link_t = type { ptr, ptr }
%struct.peak_s = type { i64, i64 }
%struct.activity_callback_thunk_s = type { ptr, ptr }
%struct.tcache_slow_s = type { %struct.anon.8, %struct.cache_bin_array_descriptor_s, ptr, i32, [39 x i8], [39 x i8], [39 x i8], ptr, ptr }
%struct.anon.8 = type { ptr, ptr }
%struct.cache_bin_array_descriptor_s = type { %struct.anon.9, ptr }
%struct.anon.9 = type { ptr, ptr }
%struct.rtree_ctx_s = type { [16 x %struct.rtree_ctx_cache_elm_s], [8 x %struct.rtree_ctx_cache_elm_s] }
%struct.rtree_ctx_cache_elm_s = type { i64, ptr }
%struct.atomic_u8_t = type { i8 }
%struct.tcache_s = type { ptr, [76 x %struct.cache_bin_s] }
%struct.cache_bin_s = type { ptr, %struct.cache_bin_stats_s, i16, i16, i16 }
%struct.cache_bin_stats_s = type { i64 }
%struct.witness_tsd_s = type { %struct.witness_list_t, i8 }
%struct.witness_list_t = type { ptr }
%struct.rtree_metadata_s = type { i32, i32, i8, i8 }
%struct.emap_alloc_ctx_t = type { i32, i8 }

@arena_emap_global = external global %struct.emap_s, align 8
@sz_index2size_tab = external global [235 x i64], align 16
@tsd_tls = external thread_local(initialexec) global %struct.tsd_s, align 8
@tsd_booted = external global i8, align 1

; Function Attrs: nounwind uwtable
define dso_local i64 @je_malloc_usable_size(ptr noundef %ptr) #0 {
entry:
  %tsd.addr.i2.i.i = alloca ptr, align 8
  %tsd.addr.i.i.i7 = alloca ptr, align 8
  %tsd.addr.i8.i = alloca ptr, align 8
  %state.i.i8 = alloca i8, align 1
  %tsd.addr.i.i9 = alloca ptr, align 8
  %tsdn.addr.i4.i.i = alloca ptr, align 8
  %tsdn.addr.i.i.i = alloca ptr, align 8
  %retval.i.i10 = alloca ptr, align 8
  %tsdn.addr.i7.i = alloca ptr, align 8
  %fallback.addr.i.i = alloca ptr, align 8
  %index.addr.i6.i = alloca i32, align 4
  %index.addr.i4.i = alloca i32, align 4
  %ret.i.i = alloca i64, align 8
  %index.addr.i.i = alloca i32, align 4
  %tsdn.addr.i.i11 = alloca ptr, align 8
  %emap.addr.i.i = alloca ptr, align 8
  %ptr.addr.i.i12 = alloca ptr, align 8
  %alloc_ctx.addr.i.i = alloca ptr, align 8
  %rtree_ctx_fallback.i.i = alloca %struct.rtree_ctx_s, align 8
  %rtree_ctx.i.i = alloca ptr, align 8
  %metadata.i.i = alloca %struct.rtree_metadata_s, align 4
  %tmp.coerce.i.i = alloca { i64, i32 }, align 8
  %tsdn.addr.i = alloca ptr, align 8
  %ptr.addr.i13 = alloca ptr, align 8
  %alloc_ctx.i = alloca %struct.emap_alloc_ctx_t, align 4
  %init.addr.i.i = alloca i8, align 1
  %tsd.addr.i17.i = alloca ptr, align 8
  %tsd.addr.i.i = alloca ptr, align 8
  %retval.i = alloca ptr, align 8
  %init.addr.i = alloca i8, align 1
  %minimal.addr.i = alloca i8, align 1
  %tsd.i = alloca ptr, align 8
  %tsdn.addr.i4.i = alloca ptr, align 8
  %ptr.addr.i.i = alloca ptr, align 8
  %tsd.addr.i.i.i = alloca ptr, align 8
  %retval.i.i = alloca ptr, align 8
  %tsdn.addr.i3.i = alloca ptr, align 8
  %tsdn.addr.i.i = alloca ptr, align 8
  %ptr.addr.i = alloca ptr, align 8
  %tsdn.i = alloca ptr, align 8
  %ret.i = alloca i64, align 8
  %ptr.addr = alloca ptr, align 8
  %ret = alloca i64, align 8
  store ptr %ptr, ptr %ptr.addr, align 8
  br label %do.body

do.body:                                          ; preds = %entry
  br label %do.end

do.end:                                           ; preds = %do.body
  %0 = load ptr, ptr %ptr.addr, align 8
  store ptr %0, ptr %ptr.addr.i, align 8
  %1 = load i8, ptr @tsd_booted, align 1
  %tobool.i6 = trunc i8 %1 to i1
  br i1 %tobool.i6, label %if.end.i.i, label %if.then.i.i

if.then.i.i:                                      ; preds = %do.end
  store ptr null, ptr %retval.i.i, align 8
  br label %tsdn_fetch.exit.i

if.end.i.i:                                       ; preds = %do.end
  store i8 0, ptr %init.addr.i, align 1
  store i8 0, ptr %minimal.addr.i, align 1
  %2 = load i8, ptr %init.addr.i, align 1
  %tobool.i = trunc i8 %2 to i1
  %frombool.i.i = zext i1 %tobool.i to i8
  store i8 %frombool.i.i, ptr %init.addr.i.i, align 1
  %3 = call align 8 ptr @llvm.threadlocal.address.p0(ptr align 8 @tsd_tls)
  store ptr %3, ptr %tsd.i, align 8
  %4 = load i8, ptr %init.addr.i, align 1
  %tobool2.i = trunc i8 %4 to i1
  br i1 %tobool2.i, label %if.end.i, label %land.lhs.true.i

land.lhs.true.i:                                  ; preds = %if.end.i.i
  br label %if.end.i

if.end.i:                                         ; preds = %land.lhs.true.i, %if.end.i.i
  %5 = load ptr, ptr %tsd.i, align 8
  store ptr %5, ptr %tsd.addr.i17.i, align 8
  %6 = load ptr, ptr %tsd.addr.i17.i, align 8
  %state.i.i = getelementptr inbounds %struct.tsd_s, ptr %6, i32 0, i32 29
  %7 = load i8, ptr %state.i.i, align 8
  %conv.i3 = zext i8 %7 to i32
  %cmp6.i = icmp ne i32 %conv.i3, 0
  br i1 %cmp6.i, label %if.then11.i, label %if.end14.i

if.then11.i:                                      ; preds = %if.end.i
  %8 = load ptr, ptr %tsd.i, align 8
  %9 = load i8, ptr %minimal.addr.i, align 1
  %tobool12.i = trunc i8 %9 to i1
  %call13.i = call ptr @tsd_fetch_slow(ptr noundef %8, i1 noundef zeroext %tobool12.i) #14
  store ptr %call13.i, ptr %retval.i, align 8
  br label %tsd_fetch_impl.exit

if.end14.i:                                       ; preds = %if.end.i
  %10 = load ptr, ptr %tsd.i, align 8
  store ptr %10, ptr %tsd.addr.i.i, align 8
  %11 = load ptr, ptr %tsd.i, align 8
  store ptr %11, ptr %retval.i, align 8
  br label %tsd_fetch_impl.exit

tsd_fetch_impl.exit:                              ; preds = %if.end14.i, %if.then11.i
  %12 = load ptr, ptr %retval.i, align 8
  store ptr %12, ptr %tsd.addr.i.i.i, align 8
  %13 = load ptr, ptr %tsd.addr.i.i.i, align 8
  store ptr %13, ptr %retval.i.i, align 8
  br label %tsdn_fetch.exit.i

tsdn_fetch.exit.i:                                ; preds = %tsd_fetch_impl.exit, %if.then.i.i
  %14 = load ptr, ptr %retval.i.i, align 8
  store ptr %14, ptr %tsdn.i, align 8
  %15 = load ptr, ptr %tsdn.i, align 8
  store ptr %15, ptr %tsdn.addr.i3.i, align 8
  %16 = load ptr, ptr %ptr.addr.i, align 8
  %cmp.i = icmp eq ptr %16, null
  br i1 %cmp.i, label %if.then.i, label %if.else.i

if.then.i:                                        ; preds = %tsdn_fetch.exit.i
  store i64 0, ptr %ret.i, align 8
  br label %je_malloc_usable_size_impl.exit

if.else.i:                                        ; preds = %tsdn_fetch.exit.i
  %17 = load ptr, ptr %tsdn.i, align 8
  %18 = load ptr, ptr %ptr.addr.i, align 8
  store ptr %17, ptr %tsdn.addr.i4.i, align 8
  store ptr %18, ptr %ptr.addr.i.i, align 8
  %19 = load ptr, ptr %tsdn.addr.i4.i, align 8
  %20 = load ptr, ptr %ptr.addr.i.i, align 8
  store ptr %19, ptr %tsdn.addr.i, align 8
  store ptr %20, ptr %ptr.addr.i13, align 8
  %21 = load ptr, ptr %tsdn.addr.i, align 8
  %22 = load ptr, ptr %ptr.addr.i13, align 8
  store ptr %21, ptr %tsdn.addr.i.i11, align 8
  store ptr @arena_emap_global, ptr %emap.addr.i.i, align 8
  store ptr %22, ptr %ptr.addr.i.i12, align 8
  store ptr %alloc_ctx.i, ptr %alloc_ctx.addr.i.i, align 8
  %23 = load ptr, ptr %tsdn.addr.i.i11, align 8
  store ptr %23, ptr %tsdn.addr.i7.i, align 8
  store ptr %rtree_ctx_fallback.i.i, ptr %fallback.addr.i.i, align 8
  %24 = load ptr, ptr %tsdn.addr.i7.i, align 8
  store ptr %24, ptr %tsdn.addr.i.i.i, align 8
  %25 = load ptr, ptr %tsdn.addr.i.i.i, align 8
  %cmp.i.i.i = icmp eq ptr %25, null
  br i1 %cmp.i.i.i, label %if.then.i.i16, label %if.end.i.i14

if.then.i.i16:                                    ; preds = %if.else.i
  %26 = load ptr, ptr %fallback.addr.i.i, align 8
  call void @rtree_ctx_data_init(ptr noundef %26) #14
  %27 = load ptr, ptr %fallback.addr.i.i, align 8
  store ptr %27, ptr %retval.i.i10, align 8
  br label %arena_salloc.exit

if.end.i.i14:                                     ; preds = %if.else.i
  %28 = load ptr, ptr %tsdn.addr.i7.i, align 8
  store ptr %28, ptr %tsdn.addr.i4.i.i, align 8
  %29 = load ptr, ptr %tsdn.addr.i4.i.i, align 8
  store ptr %29, ptr %tsd.addr.i.i9, align 8
  %30 = load ptr, ptr %tsd.addr.i.i9, align 8
  store ptr %30, ptr %tsd.addr.i8.i, align 8
  %31 = load ptr, ptr %tsd.addr.i8.i, align 8
  store ptr %31, ptr %tsd.addr.i.i.i7, align 8
  %32 = load ptr, ptr %tsd.addr.i.i.i7, align 8
  %state.i.i.i = getelementptr inbounds %struct.tsd_s, ptr %32, i32 0, i32 29
  %33 = load i8, ptr %state.i.i.i, align 8
  store i8 %33, ptr %state.i.i8, align 1
  %34 = load ptr, ptr %tsd.addr.i8.i, align 8
  store ptr %34, ptr %tsd.addr.i2.i.i, align 8
  %35 = load ptr, ptr %tsd.addr.i2.i.i, align 8
  %cant_access_tsd_items_directly_use_a_getter_or_setter_rtree_ctx.i.i.i = getelementptr inbounds %struct.tsd_s, ptr %35, i32 0, i32 28
  store ptr %cant_access_tsd_items_directly_use_a_getter_or_setter_rtree_ctx.i.i.i, ptr %retval.i.i10, align 8
  br label %arena_salloc.exit

arena_salloc.exit:                                ; preds = %if.end.i.i14, %if.then.i.i16
  %36 = load ptr, ptr %retval.i.i10, align 8
  store ptr %36, ptr %rtree_ctx.i.i, align 8
  %37 = load ptr, ptr %tsdn.addr.i.i11, align 8
  %38 = load ptr, ptr %emap.addr.i.i, align 8
  %39 = load ptr, ptr %rtree_ctx.i.i, align 8
  %40 = load ptr, ptr %ptr.addr.i.i12, align 8
  %41 = ptrtoint ptr %40 to i64
  %call1.i.i = call { i64, i32 } @rtree_metadata_read(ptr noundef %37, ptr noundef %38, ptr noundef %39, i64 noundef %41)
  store { i64, i32 } %call1.i.i, ptr %tmp.coerce.i.i, align 8
  call void @llvm.memcpy.p0.p0.i64(ptr align 4 %metadata.i.i, ptr align 8 %tmp.coerce.i.i, i64 12, i1 false)
  %42 = load i32, ptr %metadata.i.i, align 4
  %43 = load ptr, ptr %alloc_ctx.addr.i.i, align 8
  store i32 %42, ptr %43, align 4
  %slab.i.i = getelementptr inbounds %struct.rtree_metadata_s, ptr %metadata.i.i, i32 0, i32 3
  %44 = load i8, ptr %slab.i.i, align 1
  %tobool.i.i = trunc i8 %44 to i1
  %45 = load ptr, ptr %alloc_ctx.addr.i.i, align 8
  %slab3.i.i = getelementptr inbounds %struct.emap_alloc_ctx_t, ptr %45, i32 0, i32 1
  %frombool.i.i15 = zext i1 %tobool.i.i to i8
  store i8 %frombool.i.i15, ptr %slab3.i.i, align 4
  %46 = load i32, ptr %alloc_ctx.i, align 4
  store i32 %46, ptr %index.addr.i.i, align 4
  %47 = load i32, ptr %index.addr.i.i, align 4
  store i32 %47, ptr %index.addr.i4.i, align 4
  %48 = load i32, ptr %index.addr.i4.i, align 4
  store i32 %48, ptr %index.addr.i6.i, align 4
  %49 = load i32, ptr %index.addr.i6.i, align 4
  %idxprom.i.i = zext i32 %49 to i64
  %arrayidx.i.i = getelementptr inbounds [235 x i64], ptr @sz_index2size_tab, i64 0, i64 %idxprom.i.i
  %50 = load i64, ptr %arrayidx.i.i, align 8
  store i64 %50, ptr %ret.i.i, align 8
  %51 = load i64, ptr %ret.i.i, align 8
  store i64 %51, ptr %ret.i, align 8
  br label %je_malloc_usable_size_impl.exit

je_malloc_usable_size_impl.exit:                  ; preds = %arena_salloc.exit, %if.then.i
  %52 = load ptr, ptr %tsdn.i, align 8
  store ptr %52, ptr %tsdn.addr.i.i, align 8
  %53 = load i64, ptr %ret.i, align 8
  store i64 %53, ptr %ret, align 8
  br label %do.body1

do.body1:                                         ; preds = %je_malloc_usable_size_impl.exit
  br label %do.end2

do.end2:                                          ; preds = %do.body1
  %54 = load i64, ptr %ret, align 8
  ret i64 %54
}