; Function Attrs: nounwind uwtable
define dso_local i64 @je_malloc_usable_size(ptr noundef %ptr) local_unnamed_addr #1 {
entry:
  %rtree_ctx_fallback.i.i = alloca %struct.rtree_ctx_s, align 8
  %0 = load i8, ptr @tsd_booted, align 1
  %1 = and i8 %0, 1
  %tobool.i6.not = icmp eq i8 %1, 0
  br i1 %tobool.i6.not, label %tsdn_fetch.exit.i.thread, label %if.end.i.i

if.end.i.i:                                       ; preds = %entry
  %2 = tail call align 8 ptr @llvm.threadlocal.address.p0(ptr align 8 @tsd_tls)
  %state.i.i = getelementptr inbounds i8, ptr %2, i64 832
  %3 = load i8, ptr %state.i.i, align 8
  %cmp6.i.not = icmp eq i8 %3, 0
  br i1 %cmp6.i.not, label %tsdn_fetch.exit.i, label %if.then11.i

if.then11.i:                                      ; preds = %if.end.i.i
  %call13.i = tail call ptr @tsd_fetch_slow(ptr noundef nonnull %2, i1 noundef zeroext false) #19
  br label %tsdn_fetch.exit.i

tsdn_fetch.exit.i:                                ; preds = %if.then11.i, %if.end.i.i
  %retval.i.i.0 = phi ptr [ %call13.i, %if.then11.i ], [ %2, %if.end.i.i ]
  %cmp.i = icmp eq ptr %ptr, null
  br i1 %cmp.i, label %je_malloc_usable_size_impl.exit, label %if.else.i

tsdn_fetch.exit.i.thread:                         ; preds = %entry
  %cmp.i16 = icmp eq ptr %ptr, null
  br i1 %cmp.i16, label %je_malloc_usable_size_impl.exit, label %if.then.i.i16

if.else.i:                                        ; preds = %tsdn_fetch.exit.i
  %cmp.i.i.i = icmp eq ptr %retval.i.i.0, null
  br i1 %cmp.i.i.i, label %if.then.i.i16, label %if.end.i.i14.split

if.then.i.i16:                                    ; preds = %tsdn_fetch.exit.i.thread, %if.else.i
  call void @rtree_ctx_data_init(ptr noundef nonnull %rtree_ctx_fallback.i.i) #19
  %4 = ptrtoint ptr %ptr to i64
  %call1.i.i13 = call fastcc { i64, i32 } @rtree_metadata_read(ptr noundef null, ptr noundef nonnull %rtree_ctx_fallback.i.i, i64 noundef %4)
  br label %arena_salloc.exit

if.end.i.i14.split:                               ; preds = %if.else.i
  %cant_access_tsd_items_directly_use_a_getter_or_setter_rtree_ctx.i.i.i = getelementptr inbounds i8, ptr %retval.i.i.0, i64 448
  %5 = ptrtoint ptr %ptr to i64
  %call1.i.i14 = tail call fastcc { i64, i32 } @rtree_metadata_read(ptr noundef nonnull %retval.i.i.0, ptr noundef nonnull %cant_access_tsd_items_directly_use_a_getter_or_setter_rtree_ctx.i.i.i, i64 noundef %5)
  br label %arena_salloc.exit

arena_salloc.exit:                                ; preds = %if.end.i.i14.split, %if.then.i.i16
  %phi.call = phi { i64, i32 } [ %call1.i.i13, %if.then.i.i16 ], [ %call1.i.i14, %if.end.i.i14.split ]
  %call1.i.i.fca.0.extract = extractvalue { i64, i32 } %phi.call, 0
  %idxprom.i.i = and i64 %call1.i.i.fca.0.extract, 4294967295
  %arrayidx.i.i = getelementptr inbounds [235 x i64], ptr @sz_index2size_tab, i64 0, i64 %idxprom.i.i
  %6 = load i64, ptr %arrayidx.i.i, align 8
  br label %je_malloc_usable_size_impl.exit

je_malloc_usable_size_impl.exit:                  ; preds = %tsdn_fetch.exit.i.thread, %tsdn_fetch.exit.i, %arena_salloc.exit
  %ret.i.0 = phi i64 [ %6, %arena_salloc.exit ], [ 0, %tsdn_fetch.exit.i ], [ 0, %tsdn_fetch.exit.i.thread ]
  ret i64 %ret.i.0
}